(lp1
S'http://freesound.org/people/tuberatanka/sounds/110011/download/110011__tuberatanka__cat-meow.wav'
p2
aS'http://freesound.org/people/freemaster2/sounds/66518/download/66518__freemaster2__meow9.wav'
p3
aS'http://freesound.org/people/timtube/sounds/61259/download/61259__timtube__cat-meowing.wav'
p4
aS'http://freesound.org/people/Counter-gamer/sounds/213889/download/213889__counter-gamer__the-cat-s-meow.wav'
p5
aS'http://freesound.org/people/eki.747/sounds/195505/download/195505__eki-747__ts3-recording-13-07-27-23-39-38.wav'
p6
aS'http://freesound.org/people/UncleSigmund/sounds/118522/download/118522__unclesigmund__meow.wav'
p7
aS'http://freesound.org/people/lockwert/sounds/163286/download/163286__lockwert__meow-sample.wav'
p8
aS'http://freesound.org/people/Npeo/sounds/203121/download/203121__npeo__kitty-meow.mp3'
p9
aS'http://freesound.org/people/TheGertz/sounds/131201/download/131201__thegertz__cat-meow.wav'
p10
aS'http://freesound.org/people/soundscalpel.com/sounds/110388/download/110388__soundscalpel-com__animals-cat-meow-001.wav'
p11
aS'http://freesound.org/people/Npeo/sounds/207383/download/207383__npeo__meow-meow-meow.wav'
p12
aS'http://freesound.org/people/cameronmusic/sounds/138404/download/138404__cameronmusic__cat-meow.wav'
p13
aS'http://freesound.org/people/dauser/sounds/328843/download/328843__dauser__cat-meow.wav'
p14
aS'http://freesound.org/people/brickfilmerin/sounds/268795/download/268795__brickfilmerin__cat-meow.mp3'
p15
aS'http://freesound.org/people/UncleSigmund/sounds/246037/download/246037__unclesigmund__meow.wav'
p16
aS'http://freesound.org/people/AlexMurphy53/sounds/330429/download/330429__alexmurphy53__kitten-meow.mp3'
p17
aS'http://freesound.org/people/theshaggyfreak/sounds/274989/download/274989__theshaggyfreak__cat-meowing.mp3'
p18
aS'http://freesound.org/people/lolamadeus/sounds/196251/download/196251__lolamadeus__kitten-meowing.wav'
p19
aS'http://freesound.org/people/kyles/sounds/51809/download/51809__kyles__kitten-meow-evil-really-cool.aiff'
p20
aS'http://freesound.org/people/tudacs/sounds/92912/download/92912__tudacs__catmeow.wav'
p21
aS'http://freesound.org/people/ebcrosby/sounds/334435/download/334435__ebcrosby__cat-meow-3.wav'
p22
aS'http://freesound.org/people/morgantj/sounds/58384/download/58384__morgantj__cat-meow.wav'
p23
aS'http://freesound.org/people/nfrae/sounds/100030/download/100030__nfrae__beef-mow1.wav'
p24
aS'http://freesound.org/people/davidou/sounds/88475/download/88475__davidou__chat.wav'
p25
aS'http://freesound.org/people/kellyconidi/sounds/218834/download/218834__kellyconidi__catsmeow.mp3'
p26
aS'http://freesound.org/people/philsapphire/sounds/256452/download/256452__philsapphire__cat-meow.wav'
p27
aS'http://freesound.org/people/daboy291/sounds/138044/download/138044__daboy291__cat-meow-once.wav'
p28
aS'http://freesound.org/people/swatkamus/sounds/260179/download/260179__swatkamus__kitty-meow.wav'
p29
aS'http://freesound.org/people/steffcaffrey/sounds/262313/download/262313__steffcaffrey__cat-meow2.wav'
p30
aS'http://freesound.org/people/sagetyrtle/sounds/97892/download/97892__sagetyrtle__meow-cat.wav'
p31
aS'http://freesound.org/people/erihamster/sounds/123145/download/123145__erihamster__my-cat-cammi-meowing.wav'
p32
aS'http://freesound.org/people/peridactyloptrix/sounds/214759/download/214759__peridactyloptrix__cat-meowing-x5.wav'
p33
aS'http://freesound.org/people/NoiseCollector/sounds/73345/download/73345__noisecollector__mocha-meow.mp3'
p34
aS'http://freesound.org/people/DaveOfDefeat2248/sounds/94813/download/94813__daveofdefeat2248__meowing-wav.wav'
p35
aS'http://freesound.org/people/MoniqueKruger/sounds/325767/download/325767__moniquekruger__cat-meowing.wav'
p36
aS'http://freesound.org/people/danloss/sounds/264507/download/264507__danloss__meow.wav'
p37
aS'http://freesound.org/people/NoiseCollector/sounds/55151/download/55151__noisecollector__chino3.wav'
p38
aS'http://freesound.org/people/cognito%20perceptu/sounds/85238/download/85238__cognito-perceptu__cat-pleads.wav'
p39
aS'http://freesound.org/people/Dimares121287/sounds/173117/download/173117__dimares121287__cat.wav'
p40
aS'http://freesound.org/people/darcydunes/sounds/274151/download/274151__darcydunes__cat-meow-short.wav'
p41
aS'http://freesound.org/people/erihamster/sounds/123146/download/123146__erihamster__my-cat-callie-meowing.wav'
p42
aS'http://freesound.org/people/Fishdog/sounds/39989/download/39989__fishdog__meows-01.aif'
p43
aS'http://freesound.org/people/Npeo/sounds/207382/download/207382__npeo__short-meow.wav'
p44
aS'http://freesound.org/people/NoiseCollector/sounds/4915/download/4915__noisecollector__cat3.wav'
p45
aS'http://freesound.org/people/kklab5050/sounds/120017/download/120017__kklab5050__cat-meow.wav'
p46
aS'http://freesound.org/people/Fishdog/sounds/39990/download/39990__fishdog__meows-02.aif'
p47
aS'http://freesound.org/people/Corsica_S/sounds/33657/download/33657__corsica-s__meow.wav'
p48
aS'http://freesound.org/people/jslarve/sounds/172299/download/172299__jslarve__diddlebopp-the-cat-meowing.wav'
p49
aS'http://freesound.org/people/cabled_mess/sounds/338819/download/338819__cabled-mess__old-cat-meowing.flac'
p50
aS'http://freesound.org/people/Wdfourtee/sounds/192049/download/192049__wdfourtee__catroom-meow-5.wav'
p51
aS'http://freesound.org/people/Chocktaw/sounds/220019/download/220019__chocktaw__fiji-meow-01.wav'
p52
aS'http://freesound.org/people/hieronyme/sounds/62215/download/62215__hieronyme__hieronyme-cat-meow-10.aif'
p53
aS'http://freesound.org/people/pgonsilva/sounds/232361/download/232361__pgonsilva__cat-02.wav'
p54
aS'http://freesound.org/people/Taira%20Komori/sounds/213135/download/213135__taira-komori__cat6.mp3'
p55
aS'http://freesound.org/people/kevingate/sounds/158415/download/158415__kevingate__kittens-and-cats.wav'
p56
aS'http://freesound.org/people/NoiseCollector/sounds/76879/download/76879__noisecollector__hungrycat.wav'
p57
aS'http://freesound.org/people/Arctura/sounds/34057/download/34057__arctura__sound-cat-loki-quick-moan.mp3'
p58
aS'http://freesound.org/people/dwsolo/sounds/24015/download/24015__dwsolo__themba1.wav'
p59
aS'http://freesound.org/people/cognito%20perceptu/sounds/16940/download/16940__cognito-perceptu__cat-betty-mcdaniels-3.wav'
p60
aS'http://freesound.org/people/ignotus/sounds/26104/download/26104__ignotus__miau.flac'
p61
aS'http://freesound.org/people/stomachache/sounds/53254/download/53254__stomachache__cat.wav'
p62
aS'http://freesound.org/people/kyles/sounds/51811/download/51811__kyles__kitten-meows-various-many.aiff'
p63
aS'http://freesound.org/people/lotrdinonerd/sounds/185439/download/185439__lotrdinonerd__feline-meowing.wav'
p64
aS'http://freesound.org/people/rickaldo09/sounds/327583/download/327583__rickaldo09__cat-meow.wav'
p65
aS'http://freesound.org/people/heyheypi3e/sounds/180245/download/180245__heyheypi3e__cat-meow-3.wav'
p66
aS'http://freesound.org/people/promete/sounds/67445/download/67445__promete__cat-lonely-meows.wav'
p67
aS'http://freesound.org/people/promete/sounds/67446/download/67446__promete__cat-loud-meows.wav'
p68
aS'http://freesound.org/people/finalCrystine/sounds/170382/download/170382__finalcrystine__cats-getting-food.wav'
p69
a.