(lp1
Vhttp://www.tierstimmenarchiv.de/webinterface/contents/DownloadMp3.php?Mp3FileName=1819_Hauskatze_Schnurren_short.mp3
p2
aVhttp://www.tierstimmenarchiv.de/webinterface/contents/DownloadMp3.php?Mp3FileName=0524_Hauskatze_Kater_Maunzen_short.mp3
p3
aVhttp://www.tierstimmenarchiv.de/webinterface/contents/DownloadMp3.php?Mp3FileName=1821_Hauskatze_Maunzen_Schnurren_short.mp3
p4
aVhttp://www.tierstimmenarchiv.de/webinterface/contents/DownloadMp3.php?Mp3FileName=0525_Hauskatze_Weibchen_Begattung_short.mp3
p5
aVhttp://www.tierstimmenarchiv.de/webinterface/contents/DownloadMp3.php?Mp3FileName=Felis_silvestris_f_domestica_DIG0013_04_short.mp3
p6
aVhttp://www.tierstimmenarchiv.de/webinterface/contents/DownloadMp3.php?Mp3FileName=1650_Katze_Maunzen_short.mp3
p7
aVhttp://www.tierstimmenarchiv.de/webinterface/contents/DownloadMp3.php?Mp3FileName=0521_Hauskatze_Jungtier_Rufe_short.mp3
p8
aVhttp://www.tierstimmenarchiv.de/webinterface/contents/DownloadMp3.php?Mp3FileName=0523_Hauskatze_Jungtier_Fauchen_short.mp3
p9
aVhttp://www.tierstimmenarchiv.de/webinterface/contents/DownloadMp3.php?Mp3FileName=0522_Hauskatze_Jungtier_Schnurren_short.mp3
p10
aVhttp://www.tierstimmenarchiv.de/webinterface/contents/DownloadMp3.php?Mp3FileName=0526_Hauskatze_Weibchen_Kontaktlaute_short.mp3
p11
aVhttp://www.tierstimmenarchiv.de/webinterface/contents/DownloadMp3.php?Mp3FileName=Felis_silvestris_f_domestica_DIG0015_14_short.mp3
p12
aVhttp://www.tierstimmenarchiv.de/webinterface/contents/DownloadMp3.php?Mp3FileName=Felis_silvestris_f_domestica_DIG0103_01_front_short.mp3
p13
aVhttp://www.tierstimmenarchiv.de/webinterface/contents/DownloadMp3.php?Mp3FileName=Felis_silvestris_f_domestica_DIG0105_08_short.mp3
p14
aVhttp://www.tierstimmenarchiv.de/webinterface/contents/DownloadMp3.php?Mp3FileName=Felis_silvestris_f_domestica_DIG0172_11_short.mp3
p15
aVhttp://www.tierstimmenarchiv.de/webinterface/contents/PdfViewer.php?FileName=M0081.pdf
p16
aVhttp://www.tierstimmenarchiv.de/webinterface/contents/DownloadMp3.php?Mp3FileName=Felis_silvestris_f_domestica_DIG0013_05_short.mp3
p17
aVhttp://www.tierstimmenarchiv.de/webinterface/contents/DownloadMp3.php?Mp3FileName=Felis_silvestris_f_domestica_DIG0089_01_short.mp3
p18
aVhttp://www.tierstimmenarchiv.de/webinterface/contents/DownloadMp3.php?Mp3FileName=Felis_silvestris_f_domestica_DIG0103_01_rear_short.mp3
p19
aVhttp://www.tierstimmenarchiv.de/webinterface/contents/DownloadMp3.php?Mp3FileName=Felis_silvestris_f_domestica_DIG0172_06_short.mp3
p20
aVhttp://www.tierstimmenarchiv.de/webinterface/contents/DownloadMp3.php?Mp3FileName=Felis_silvestris_f_domestica_S0002_01_short.mp3
p21
aVhttp://www.tierstimmenarchiv.de/webinterface/contents/DownloadMp3.php?Mp3FileName=Felis_silvestris_f_domestica_S0005_01_short.mp3
p22
aVhttp://www.tierstimmenarchiv.de/webinterface/contents/PdfViewer.php?FileName=S0010.pdf
p23
aVhttp://www.tierstimmenarchiv.de/webinterface/contents/DownloadMp3.php?Mp3FileName=Felis_silvestris_f_domestica_S0001_01_short.mp3
p24
aVhttp://www.tierstimmenarchiv.de/webinterface/contents/DownloadMp3.php?Mp3FileName=Felis_silvestris_f_domestica_S0004_01_short.mp3
p25
aVhttp://www.tierstimmenarchiv.de/webinterface/contents/PdfViewer.php?FileName=S0009.pdf
p26
aVhttp://www.tierstimmenarchiv.de/webinterface/contents/PdfViewer.php?FileName=S0014.pdf
p27
aVhttp://www.tierstimmenarchiv.de/webinterface/contents/PdfViewer.php?FileName=S0016.pdf
p28
aVhttp://www.tierstimmenarchiv.de/webinterface/contents/DownloadMp3.php?Mp3FileName=Felis_silvestris_f_domestica_S0044_01_short.mp3
p29
aVhttp://www.tierstimmenarchiv.de/webinterface/contents/PdfViewer.php?FileName=S0046.pdf
p30
aVhttp://www.tierstimmenarchiv.de/webinterface/contents/PdfViewer.php?FileName=S0048.pdf
p31
aVhttp://www.tierstimmenarchiv.de/webinterface/contents/DownloadMp3.php?Mp3FileName=Felis_silvestris_f_domestica_S0013_01_short.mp3
p32
aVhttp://www.tierstimmenarchiv.de/webinterface/contents/PdfViewer.php?FileName=S0017.pdf
p33
aVhttp://www.tierstimmenarchiv.de/webinterface/contents/PdfViewer.php?FileName=S0045.pdf
p34
aVhttp://www.tierstimmenarchiv.de/webinterface/contents/PdfViewer.php?FileName=S0047.pdf
p35
aVhttp://www.tierstimmenarchiv.de/webinterface/contents/DownloadMp3.php?Mp3FileName=Felis_silvestris_f_domestica_S0050_01_short.mp3
p36
aVhttp://www.tierstimmenarchiv.de/webinterface/contents/PdfViewer.php?FileName=S0052.pdf
p37
aVhttp://www.tierstimmenarchiv.de/webinterface/contents/PdfViewer.php?FileName=S0054.pdf
p38
aVhttp://www.tierstimmenarchiv.de/webinterface/contents/PdfViewer.php?FileName=S0055.pdf
p39
aVhttp://www.tierstimmenarchiv.de/webinterface/contents/PdfViewer.php?FileName=S0057.pdf
p40
aVhttp://www.tierstimmenarchiv.de/webinterface/contents/DownloadMp3.php?Mp3FileName=Felis_silvestris_f_domestica_S0049_01_short.mp3
p41
aVhttp://www.tierstimmenarchiv.de/webinterface/contents/DownloadMp3.php?Mp3FileName=Felis_silvestris_f_domestica_S0051_01_short.mp3
p42
aVhttp://www.tierstimmenarchiv.de/webinterface/contents/PdfViewer.php?FileName=S0053.pdf
p43
aVhttp://www.tierstimmenarchiv.de/webinterface/contents/PdfViewer.php?FileName=S0054.pdf
p44
aVhttp://www.tierstimmenarchiv.de/webinterface/contents/PdfViewer.php?FileName=S0056.pdf
p45
aVhttp://www.tierstimmenarchiv.de/webinterface/contents/PdfViewer.php?FileName=S0059.pdf
p46
aVhttp://www.tierstimmenarchiv.de/webinterface/contents/PdfViewer.php?FileName=S0061.pdf
p47
aVhttp://www.tierstimmenarchiv.de/webinterface/contents/PdfViewer.php?FileName=S0063.pdf
p48
aVhttp://www.tierstimmenarchiv.de/webinterface/contents/PdfViewer.php?FileName=S0065.pdf
p49
aVhttp://www.tierstimmenarchiv.de/webinterface/contents/PdfViewer.php?FileName=S0067.pdf
p50
aVhttp://www.tierstimmenarchiv.de/webinterface/contents/PdfViewer.php?FileName=S0058.pdf
p51
aVhttp://www.tierstimmenarchiv.de/webinterface/contents/PdfViewer.php?FileName=S0060.pdf
p52
aVhttp://www.tierstimmenarchiv.de/webinterface/contents/PdfViewer.php?FileName=S0062.pdf
p53
aVhttp://www.tierstimmenarchiv.de/webinterface/contents/PdfViewer.php?FileName=S0064.pdf
p54
aVhttp://www.tierstimmenarchiv.de/webinterface/contents/PdfViewer.php?FileName=S0066.pdf
p55
aVhttp://www.tierstimmenarchiv.de/webinterface/contents/PdfViewer.php?FileName=S0069.pdf
p56
aVhttp://www.tierstimmenarchiv.de/webinterface/contents/PdfViewer.php?FileName=S0071.pdf
p57
aVhttp://www.tierstimmenarchiv.de/webinterface/contents/PdfViewer.php?FileName=S0073.pdf
p58
aVhttp://www.tierstimmenarchiv.de/webinterface/contents/PdfViewer.php?FileName=S0075.pdf
p59
aVhttp://www.tierstimmenarchiv.de/webinterface/contents/PdfViewer.php?FileName=S0077.pdf
p60
aVhttp://www.tierstimmenarchiv.de/webinterface/contents/PdfViewer.php?FileName=S0068.pdf
p61
aVhttp://www.tierstimmenarchiv.de/webinterface/contents/PdfViewer.php?FileName=S0070.pdf
p62
aVhttp://www.tierstimmenarchiv.de/webinterface/contents/PdfViewer.php?FileName=S0072.pdf
p63
aVhttp://www.tierstimmenarchiv.de/webinterface/contents/PdfViewer.php?FileName=S0074.pdf
p64
aVhttp://www.tierstimmenarchiv.de/webinterface/contents/PdfViewer.php?FileName=S0076.pdf
p65
aVhttp://www.tierstimmenarchiv.de/webinterface/contents/PdfViewer.php?FileName=S0079.pdf
p66
aVhttp://www.tierstimmenarchiv.de/webinterface/contents/PdfViewer.php?FileName=S0081.pdf
p67
aVhttp://www.tierstimmenarchiv.de/webinterface/contents/PdfViewer.php?FileName=S0083.pdf
p68
aVhttp://www.tierstimmenarchiv.de/webinterface/contents/PdfViewer.php?FileName=S0085.pdf
p69
aVhttp://www.tierstimmenarchiv.de/webinterface/contents/PdfViewer.php?FileName=S0087.pdf
p70
aVhttp://www.tierstimmenarchiv.de/webinterface/contents/PdfViewer.php?FileName=S0078.pdf
p71
aVhttp://www.tierstimmenarchiv.de/webinterface/contents/PdfViewer.php?FileName=S0080.pdf
p72
aVhttp://www.tierstimmenarchiv.de/webinterface/contents/PdfViewer.php?FileName=S0082.pdf
p73
aVhttp://www.tierstimmenarchiv.de/webinterface/contents/PdfViewer.php?FileName=S0084.pdf
p74
aVhttp://www.tierstimmenarchiv.de/webinterface/contents/PdfViewer.php?FileName=S0086.pdf
p75
aVhttp://www.tierstimmenarchiv.de/webinterface/contents/PdfViewer.php?FileName=S0089.pdf
p76
aVhttp://www.tierstimmenarchiv.de/webinterface/contents/PdfViewer.php?FileName=S0091.pdf
p77
aVhttp://www.tierstimmenarchiv.de/webinterface/contents/PdfViewer.php?FileName=S0093.pdf
p78
aVhttp://www.tierstimmenarchiv.de/webinterface/contents/PdfViewer.php?FileName=S0095.pdf
p79
aVhttp://www.tierstimmenarchiv.de/webinterface/contents/PdfViewer.php?FileName=S0097.pdf
p80
aVhttp://www.tierstimmenarchiv.de/webinterface/contents/PdfViewer.php?FileName=S0088.pdf
p81
aVhttp://www.tierstimmenarchiv.de/webinterface/contents/PdfViewer.php?FileName=S0090.pdf
p82
aVhttp://www.tierstimmenarchiv.de/webinterface/contents/PdfViewer.php?FileName=S0092.pdf
p83
aVhttp://www.tierstimmenarchiv.de/webinterface/contents/PdfViewer.php?FileName=S0094.pdf
p84
aVhttp://www.tierstimmenarchiv.de/webinterface/contents/PdfViewer.php?FileName=S0096.pdf
p85
aVhttp://www.tierstimmenarchiv.de/webinterface/contents/PdfViewer.php?FileName=S0099.pdf
p86
aVhttp://www.tierstimmenarchiv.de/webinterface/contents/PdfViewer.php?FileName=S0101.pdf
p87
aVhttp://www.tierstimmenarchiv.de/webinterface/contents/PdfViewer.php?FileName=S0103.pdf
p88
aVhttp://www.tierstimmenarchiv.de/webinterface/contents/PdfViewer.php?FileName=S0105.pdf
p89
aVhttp://www.tierstimmenarchiv.de/webinterface/contents/PdfViewer.php?FileName=S0107.pdf
p90
aVhttp://www.tierstimmenarchiv.de/webinterface/contents/PdfViewer.php?FileName=S0098.pdf
p91
aVhttp://www.tierstimmenarchiv.de/webinterface/contents/PdfViewer.php?FileName=S0100.pdf
p92
aVhttp://www.tierstimmenarchiv.de/webinterface/contents/PdfViewer.php?FileName=S0102.pdf
p93
aVhttp://www.tierstimmenarchiv.de/webinterface/contents/PdfViewer.php?FileName=S0104.pdf
p94
aVhttp://www.tierstimmenarchiv.de/webinterface/contents/DownloadMp3.php?Mp3FileName=Felis_silvestris_f_domestica_S0106_01_short.mp3
p95
aVhttp://www.tierstimmenarchiv.de/webinterface/contents/PdfViewer.php?FileName=S0109.pdf
p96
aVhttp://www.tierstimmenarchiv.de/webinterface/contents/PdfViewer.php?FileName=S0111.pdf
p97
aVhttp://www.tierstimmenarchiv.de/webinterface/contents/PdfViewer.php?FileName=S0113.pdf
p98
aVhttp://www.tierstimmenarchiv.de/webinterface/contents/PdfViewer.php?FileName=S0115.pdf
p99
aVhttp://www.tierstimmenarchiv.de/webinterface/contents/PdfViewer.php?FileName=S0117.pdf
p100
aVhttp://www.tierstimmenarchiv.de/webinterface/contents/PdfViewer.php?FileName=S0108.pdf
p101
aVhttp://www.tierstimmenarchiv.de/webinterface/contents/PdfViewer.php?FileName=S0110.pdf
p102
aVhttp://www.tierstimmenarchiv.de/webinterface/contents/DownloadMp3.php?Mp3FileName=Felis_silvestris_f_domestica_S0112_01_short.mp3
p103
aVhttp://www.tierstimmenarchiv.de/webinterface/contents/PdfViewer.php?FileName=S0114.pdf
p104
aVhttp://www.tierstimmenarchiv.de/webinterface/contents/PdfViewer.php?FileName=S0116.pdf
p105
aVhttp://www.tierstimmenarchiv.de/webinterface/contents/PdfViewer.php?FileName=S0119.pdf
p106
aVhttp://www.tierstimmenarchiv.de/webinterface/contents/PdfViewer.php?FileName=S0121.pdf
p107
aVhttp://www.tierstimmenarchiv.de/webinterface/contents/PdfViewer.php?FileName=S0123.pdf
p108
aVhttp://www.tierstimmenarchiv.de/webinterface/contents/DownloadMp3.php?Mp3FileName=Felis_silvestris_f_domestica_S0125_01_short.mp3
p109
aVhttp://www.tierstimmenarchiv.de/webinterface/contents/DownloadMp3.php?Mp3FileName=Felis_silvestris_f_domestica_S0292_05_short.mp3
p110
aVhttp://www.tierstimmenarchiv.de/webinterface/contents/PdfViewer.php?FileName=S0118.pdf
p111
aVhttp://www.tierstimmenarchiv.de/webinterface/contents/PdfViewer.php?FileName=S0120.pdf
p112
aVhttp://www.tierstimmenarchiv.de/webinterface/contents/PdfViewer.php?FileName=S0122.pdf
p113
aVhttp://www.tierstimmenarchiv.de/webinterface/contents/PdfViewer.php?FileName=S0124.pdf
p114
aVhttp://www.tierstimmenarchiv.de/webinterface/contents/PdfViewer.php?FileName=S0126.pdf
p115
aVhttp://www.tierstimmenarchiv.de/webinterface/contents/PdfViewer.php?FileName=S0375.pdf
p116
aVhttp://www.tierstimmenarchiv.de/webinterface/contents/PdfViewer.php?FileName=S0464.pdf
p117
aVhttp://www.tierstimmenarchiv.de/webinterface/contents/DownloadMp3.php?Mp3FileName=Felis_silvestris_f_domestica_S0548_01_short.mp3
p118
aVhttp://www.tierstimmenarchiv.de/webinterface/contents/DownloadMp3.php?Mp3FileName=Felis_silvestris_f_domestica_S0618_03_short.mp3
p119
aVhttp://www.tierstimmenarchiv.de/webinterface/contents/PdfViewer.php?FileName=S0651.pdf
p120
aVhttp://www.tierstimmenarchiv.de/webinterface/contents/PdfViewer.php?FileName=S0321.pdf
p121
aVhttp://www.tierstimmenarchiv.de/webinterface/contents/DownloadMp3.php?Mp3FileName=Felis_silvestris_f_domestica_S0429_01_short.mp3
p122
aVhttp://www.tierstimmenarchiv.de/webinterface/contents/PdfViewer.php?FileName=S0491.pdf
p123
aVhttp://www.tierstimmenarchiv.de/webinterface/contents/DownloadMp3.php?Mp3FileName=Felis_silvestris_f_domestica_S0618_01_short.mp3
p124
aVhttp://www.tierstimmenarchiv.de/webinterface/contents/PdfViewer.php?FileName=S0621.pdf
p125
aVhttp://www.tierstimmenarchiv.de/webinterface/contents/PdfViewer.php?FileName=S0791.pdf
p126
aVhttp://www.tierstimmenarchiv.de/webinterface/contents/DownloadMp3.php?Mp3FileName=Felis_silvestris_f_domestica_S1103_03_short.mp3
p127
aVhttp://www.tierstimmenarchiv.de/webinterface/contents/PdfViewer.php?FileName=V1531.pdf
p128
aVhttp://www.tierstimmenarchiv.de/webinterface/contents/DownloadMp3.php?Mp3FileName=Felis_silvestris_f_domestica_S1042_06_short.mp3
p129
aVhttp://www.tierstimmenarchiv.de/webinterface/contents/PdfViewer.php?FileName=V1056.pdf
p130
aVhttp://www.tierstimmenarchiv.de/webinterface/contents/PdfViewer.php?FileName=V1531.pdf
p131
aVhttp://www.tierstimmenarchiv.de/webinterface/contents/DownloadMp3.php?Mp3FileName=Felis_silvestris_f_domestica_V1543_22_short.mp3
p132
aVhttp://www.tierstimmenarchiv.de/webinterface/contents/PdfViewer.php?FileName=V1699.pdf
p133
aVhttp://www.tierstimmenarchiv.de/webinterface/contents/DownloadMp3.php?Mp3FileName=Felis_silvestris_f_domestica_V2012_09_short.mp3
p134
aVhttp://www.tierstimmenarchiv.de/webinterface/contents/DownloadMp3.php?Mp3FileName=Felis_silvestris_f_domestica_V1542_22_short.mp3
p135
aVhttp://www.tierstimmenarchiv.de/webinterface/contents/DownloadMp3.php?Mp3FileName=Felis_silvestris_f_domestica_V1543_23_short.mp3
p136
aVhttp://www.tierstimmenarchiv.de/webinterface/contents/PdfViewer.php?FileName=V2006.pdf
p137
aVhttp://www.tierstimmenarchiv.de/webinterface/contents/DownloadMp3.php?Mp3FileName=Felis_silvestris_f_domestica_S0002_01_short.mp3
p138
aVhttp://www.tierstimmenarchiv.de/webinterface/contents/DownloadMp3.php?Mp3FileName=Felis_silvestris_f_domestica_S0001_01_short.mp3
p139
aVhttp://www.tierstimmenarchiv.de/webinterface/contents/PdfViewer.php?FileName=S0017.pdf
p140
aVhttp://www.tierstimmenarchiv.de/webinterface/contents/PdfViewer.php?FileName=S0791.pdf
p141
aVhttp://www.tierstimmenarchiv.de/webinterface/contents/PdfViewer.php?FileName=V1531.pdf
p142
aVhttp://www.tierstimmenarchiv.de/webinterface/contents/DownloadMp3.php?Mp3FileName=Felis_silvestris_f_domestica_S1042_06_short.mp3
p143
aVhttp://www.tierstimmenarchiv.de/webinterface/contents/DownloadMp3.php?Mp3FileName=Felis_silvestris_f_domestica_S0002_01_short.mp3
p144
aVhttp://www.tierstimmenarchiv.de/webinterface/contents/DownloadMp3.php?Mp3FileName=Felis_silvestris_f_domestica_S0001_01_short.mp3
p145
aVhttp://www.tierstimmenarchiv.de/webinterface/contents/DownloadMp3.php?Mp3FileName=Felis_silvestris_f_domestica_S1042_06_short.mp3
p146
aVhttp://www.tierstimmenarchiv.de/webinterface/contents/DownloadMp3.php?Mp3FileName=Felis_silvestris_f_domestica_S0002_01_short.mp3
p147
a.